; Function Attrs: mustprogress nounwind uwtable
define void @_ZN3gmx23SelectionOptionBehaviorD2Ev(ptr noundef nonnull align 8 dereferenceable(16) %0) unnamed_addr #1 align 2 personality ptr @__gxx_personality_v0 {
  store ptr getelementptr inbounds inrange(-16, 40) ({ [7 x ptr] }, ptr @_ZTVN3gmx23SelectionOptionBehaviorE, i64 0, i32 0, i64 2), ptr %0, align 8
  %2 = getelementptr inbounds i8, ptr %0, i64 8
  %3 = load ptr, ptr %2, align 8
  %.not.i = icmp eq ptr %3, null
  br i1 %.not.i, label %_ZNSt10unique_ptrIN3gmx23SelectionOptionBehavior4ImplESt14default_deleteIS2_EED2Ev.exit, label %4

4:                                                ; preds = %1
  %5 = getelementptr inbounds i8, ptr %3, i64 64
  %6 = load ptr, ptr %5, align 8
  %.not.i.i.i = icmp eq ptr %6, null
  br i1 %.not.i.i.i, label %_ZNKSt14default_deleteIN3gmx23SelectionOptionBehavior4ImplEEclEPS2_.exit.i, label %7

7:                                                ; preds = %4
  invoke void @_Z22gmx_ana_indexgrps_freeP19gmx_ana_indexgrps_t(ptr noundef nonnull %6)
          to label %_ZNKSt14default_deleteIN3gmx23SelectionOptionBehavior4ImplEEclEPS2_.exit.i unwind label %8

8:                                                ; preds = %7
  %9 = landingpad { ptr, i32 }
          catch ptr null
  %10 = extractvalue { ptr, i32 } %9, 0
  tail call void @__clang_call_terminate(ptr %10) #16
  unreachable

_ZNKSt14default_deleteIN3gmx23SelectionOptionBehavior4ImplEEclEPS2_.exit.i: ; preds = %7, %4
  %11 = getelementptr inbounds i8, ptr %3, i64 32
  tail call void @_ZNSt7__cxx1112basic_stringIcSt11char_traitsIcESaIcEED1Ev(ptr noundef nonnull align 8 dereferenceable(32) %11) #17
  %12 = getelementptr inbounds i8, ptr %3, i64 16
  tail call void @_ZN3gmx22SelectionOptionManagerD1Ev(ptr noundef nonnull align 8 dereferenceable(16) %12) #17
  tail call void @_ZdlPv(ptr noundef nonnull %3) #18
  br label %_ZNSt10unique_ptrIN3gmx23SelectionOptionBehavior4ImplESt14default_deleteIS2_EED2Ev.exit

_ZNSt10unique_ptrIN3gmx23SelectionOptionBehavior4ImplESt14default_deleteIS2_EED2Ev.exit: ; preds = %1, %_ZNKSt14default_deleteIN3gmx23SelectionOptionBehavior4ImplEEclEPS2_.exit.i
  store ptr null, ptr %2, align 8
  tail call void @_ZN3gmx16IOptionsBehaviorD2Ev(ptr noundef nonnull align 8 dereferenceable(8) %0) #17
  ret void
}